target datalayout = "e-m:e-p270:32:32-p271:32:32-p272:64:64-i64:64-i128:128-f80:128-n8:16:32:64-S128"
target triple = "x86_64-pc-linux-gnu"

@ff_crop_tab = external hidden constant [2304 x i8], align 16

; Function Attrs: nounwind uwtable
define internal void @put_rv30_tpel8_hhvv_lowpass(ptr noundef %0, ptr noundef %1, i32 noundef %2, i32 noundef %3) #3 {
  %5 = alloca ptr, align 8
  %6 = alloca ptr, align 8
  %7 = alloca i32, align 4
  %8 = alloca i32, align 4
  %9 = alloca i32, align 4
  %10 = alloca i32, align 4
  %11 = alloca ptr, align 8
  %12 = alloca i32, align 4
  %13 = alloca i32, align 4
  store ptr %0, ptr %5, align 8, !tbaa !10
  store ptr %1, ptr %6, align 8, !tbaa !10
  store i32 %2, ptr %7, align 4, !tbaa !14
  store i32 %3, ptr %8, align 4, !tbaa !14
  call void @llvm.lifetime.start.p0(i64 4, ptr %9) #4
  store i32 8, ptr %9, align 4, !tbaa !14
  call void @llvm.lifetime.start.p0(i64 4, ptr %10) #4
  store i32 8, ptr %10, align 4, !tbaa !14
  call void @llvm.lifetime.start.p0(i64 8, ptr %11) #4
  store ptr getelementptr inbounds (i8, ptr @ff_crop_tab, i64 1024), ptr %11, align 8, !tbaa !10
  call void @llvm.lifetime.start.p0(i64 4, ptr %12) #4
  call void @llvm.lifetime.start.p0(i64 4, ptr %13) #4
  store i32 0, ptr %13, align 4, !tbaa !14
  br label %14

14:                                               ; preds = %147, %4
  %15 = load i32, ptr %13, align 4, !tbaa !14
  %16 = icmp slt i32 %15, 8
  br i1 %16, label %17, label %150

17:                                               ; preds = %14
  store i32 0, ptr %12, align 4, !tbaa !14
  br label %18

18:                                               ; preds = %135, %17
  %19 = load i32, ptr %12, align 4, !tbaa !14
  %20 = icmp slt i32 %19, 8
  br i1 %20, label %21, label %138

21:                                               ; preds = %18
  %22 = load ptr, ptr %11, align 8, !tbaa !10
  %23 = load ptr, ptr %6, align 8, !tbaa !10
  %24 = load i32, ptr %12, align 4, !tbaa !14
  %25 = load i32, ptr %8, align 4, !tbaa !14
  %26 = mul nsw i32 %25, 0
  %27 = add nsw i32 %24, %26
  %28 = sext i32 %27 to i64
  %29 = getelementptr inbounds i8, ptr %23, i64 %28
  %30 = load i8, ptr %29, align 1, !tbaa !16
  %31 = zext i8 %30 to i32
  %32 = mul nsw i32 36, %31
  %33 = load ptr, ptr %6, align 8, !tbaa !10
  %34 = load i32, ptr %12, align 4, !tbaa !14
  %35 = add nsw i32 %34, 1
  %36 = load i32, ptr %8, align 4, !tbaa !14
  %37 = mul nsw i32 %36, 0
  %38 = add nsw i32 %35, %37
  %39 = sext i32 %38 to i64
  %40 = getelementptr inbounds i8, ptr %33, i64 %39
  %41 = load i8, ptr %40, align 1, !tbaa !16
  %42 = zext i8 %41 to i32
  %43 = mul nsw i32 54, %42
  %44 = add nsw i32 %32, %43
  %45 = load ptr, ptr %6, align 8, !tbaa !10
  %46 = load i32, ptr %12, align 4, !tbaa !14
  %47 = add nsw i32 %46, 2
  %48 = load i32, ptr %8, align 4, !tbaa !14
  %49 = mul nsw i32 %48, 0
  %50 = add nsw i32 %47, %49
  %51 = sext i32 %50 to i64
  %52 = getelementptr inbounds i8, ptr %45, i64 %51
  %53 = load i8, ptr %52, align 1, !tbaa !16
  %54 = zext i8 %53 to i32
  %55 = mul nsw i32 6, %54
  %56 = add nsw i32 %44, %55
  %57 = load ptr, ptr %6, align 8, !tbaa !10
  %58 = load i32, ptr %12, align 4, !tbaa !14
  %59 = load i32, ptr %8, align 4, !tbaa !14
  %60 = mul nsw i32 %59, 1
  %61 = add nsw i32 %58, %60
  %62 = sext i32 %61 to i64
  %63 = getelementptr inbounds i8, ptr %57, i64 %62
  %64 = load i8, ptr %63, align 1, !tbaa !16
  %65 = zext i8 %64 to i32
  %66 = mul nsw i32 54, %65
  %67 = add nsw i32 %56, %66
  %68 = load ptr, ptr %6, align 8, !tbaa !10
  %69 = load i32, ptr %12, align 4, !tbaa !14
  %70 = add nsw i32 %69, 1
  %71 = load i32, ptr %8, align 4, !tbaa !14
  %72 = mul nsw i32 %71, 1
  %73 = add nsw i32 %70, %72
  %74 = sext i32 %73 to i64
  %75 = getelementptr inbounds i8, ptr %68, i64 %74
  %76 = load i8, ptr %75, align 1, !tbaa !16
  %77 = zext i8 %76 to i32
  %78 = mul nsw i32 81, %77
  %79 = add nsw i32 %67, %78
  %80 = load ptr, ptr %6, align 8, !tbaa !10
  %81 = load i32, ptr %12, align 4, !tbaa !14
  %82 = add nsw i32 %81, 2
  %83 = load i32, ptr %8, align 4, !tbaa !14
  %84 = mul nsw i32 %83, 1
  %85 = add nsw i32 %82, %84
  %86 = sext i32 %85 to i64
  %87 = getelementptr inbounds i8, ptr %80, i64 %86
  %88 = load i8, ptr %87, align 1, !tbaa !16
  %89 = zext i8 %88 to i32
  %90 = mul nsw i32 9, %89
  %91 = add nsw i32 %79, %90
  %92 = load ptr, ptr %6, align 8, !tbaa !10
  %93 = load i32, ptr %12, align 4, !tbaa !14
  %94 = load i32, ptr %8, align 4, !tbaa !14
  %95 = mul nsw i32 %94, 2
  %96 = add nsw i32 %93, %95
  %97 = sext i32 %96 to i64
  %98 = getelementptr inbounds i8, ptr %92, i64 %97
  %99 = load i8, ptr %98, align 1, !tbaa !16
  %100 = zext i8 %99 to i32
  %101 = mul nsw i32 6, %100
  %102 = add nsw i32 %91, %101
  %103 = load ptr, ptr %6, align 8, !tbaa !10
  %104 = load i32, ptr %12, align 4, !tbaa !14
  %105 = add nsw i32 %104, 1
  %106 = load i32, ptr %8, align 4, !tbaa !14
  %107 = mul nsw i32 %106, 2
  %108 = add nsw i32 %105, %107
  %109 = sext i32 %108 to i64
  %110 = getelementptr inbounds i8, ptr %103, i64 %109
  %111 = load i8, ptr %110, align 1, !tbaa !16
  %112 = zext i8 %111 to i32
  %113 = mul nsw i32 9, %112
  %114 = add nsw i32 %102, %113
  %115 = load ptr, ptr %6, align 8, !tbaa !10
  %116 = load i32, ptr %12, align 4, !tbaa !14
  %117 = add nsw i32 %116, 2
  %118 = load i32, ptr %8, align 4, !tbaa !14
  %119 = mul nsw i32 %118, 2
  %120 = add nsw i32 %117, %119
  %121 = sext i32 %120 to i64
  %122 = getelementptr inbounds i8, ptr %115, i64 %121
  %123 = load i8, ptr %122, align 1, !tbaa !16
  %124 = zext i8 %123 to i32
  %125 = add nsw i32 %114, %124
  %126 = add nsw i32 %125, 128
  %127 = ashr i32 %126, 8
  %128 = sext i32 %127 to i64
  %129 = getelementptr inbounds i8, ptr %22, i64 %128
  %130 = load i8, ptr %129, align 1, !tbaa !16
  %131 = load ptr, ptr %5, align 8, !tbaa !10
  %132 = load i32, ptr %12, align 4, !tbaa !14
  %133 = sext i32 %132 to i64
  %134 = getelementptr inbounds i8, ptr %131, i64 %133
  store i8 %130, ptr %134, align 1, !tbaa !16
  br label %135

135:                                              ; preds = %21
  %136 = load i32, ptr %12, align 4, !tbaa !14
  %137 = add nsw i32 %136, 1
  store i32 %137, ptr %12, align 4, !tbaa !14
  br label %18, !llvm.loop !26

138:                                              ; preds = %18
  %139 = load i32, ptr %8, align 4, !tbaa !14
  %140 = load ptr, ptr %6, align 8, !tbaa !10
  %141 = sext i32 %139 to i64
  %142 = getelementptr inbounds i8, ptr %140, i64 %141
  store ptr %142, ptr %6, align 8, !tbaa !10
  %143 = load i32, ptr %7, align 4, !tbaa !14
  %144 = load ptr, ptr %5, align 8, !tbaa !10
  %145 = sext i32 %143 to i64
  %146 = getelementptr inbounds i8, ptr %144, i64 %145
  store ptr %146, ptr %5, align 8, !tbaa !10
  br label %147

147:                                              ; preds = %138
  %148 = load i32, ptr %13, align 4, !tbaa !14
  %149 = add nsw i32 %148, 1
  store i32 %149, ptr %13, align 4, !tbaa !14
  br label %14, !llvm.loop !27

150:                                              ; preds = %14
  call void @llvm.lifetime.end.p0(i64 4, ptr %13) #4
  call void @llvm.lifetime.end.p0(i64 4, ptr %12) #4
  call void @llvm.lifetime.end.p0(i64 8, ptr %11) #4
  call void @llvm.lifetime.end.p0(i64 4, ptr %10) #4
  call void @llvm.lifetime.end.p0(i64 4, ptr %9) #4
  ret void
}

; Function Attrs: nounwind uwtable
define internal void @put_rv30_tpel8_mc22_c(ptr noundef %0, ptr noundef %1, i64 noundef %2) #3 {
  %4 = alloca ptr, align 8
  %5 = alloca ptr, align 8
  %6 = alloca i64, align 8
  store ptr %0, ptr %4, align 8, !tbaa !10
  store ptr %1, ptr %5, align 8, !tbaa !10
  store i64 %2, ptr %6, align 8, !tbaa !12
  %7 = load ptr, ptr %4, align 8, !tbaa !10
  %8 = load ptr, ptr %5, align 8, !tbaa !10
  %9 = load i64, ptr %6, align 8, !tbaa !12
  %10 = trunc i64 %9 to i32
  %11 = load i64, ptr %6, align 8, !tbaa !12
  %12 = trunc i64 %11 to i32
  call void @put_rv30_tpel8_hhvv_lowpass(ptr noundef %7, ptr noundef %8, i32 noundef %10, i32 noundef %12)
  ret void
}