; Function Attrs: nofree norecurse nosync nounwind memory(argmem: readwrite) uwtable
define internal void @put_rv30_tpel8_mc22_c(ptr noundef writeonly captures(none) %0, ptr noundef readonly captures(none) %1, i64 noundef %2) #3 {
  %4 = trunc i64 %2 to i32
  %5 = shl nsw i32 %4, 1
  %sext = shl i64 %2, 32
  %6 = ashr exact i64 %sext, 32
  %7 = sext i32 %5 to i64
  br label %.preheader.i

.preheader.i:                                     ; preds = %43, %3
  %.047.i = phi i32 [ 0, %3 ], [ %45, %43 ]
  %.03846.i = phi ptr [ %0, %3 ], [ %44, %43 ]
  %.03945.i = phi ptr [ %1, %3 ], [ %invariant.gep.i, %43 ]
  %invariant.gep.i = getelementptr i8, ptr %.03945.i, i64 %6
  %invariant.gep54.i = getelementptr i8, ptr %.03945.i, i64 %7
  br label %8

8:                                                ; preds = %8, %.preheader.i
  %indvars.iv.i = phi i64 [ 0, %.preheader.i ], [ %indvars.iv.next.i, %8 ]
  %9 = getelementptr inbounds nuw i8, ptr %.03945.i, i64 %indvars.iv.i
  %10 = load i8, ptr %9, align 1, !tbaa !8
  %11 = zext i8 %10 to i64
  %12 = mul nuw nsw i64 %11, 36
  %indvars.iv.next.i = add nuw nsw i64 %indvars.iv.i, 1
  %13 = getelementptr inbounds nuw i8, ptr %.03945.i, i64 %indvars.iv.next.i
  %14 = load i8, ptr %13, align 1, !tbaa !8
  %15 = zext i8 %14 to i64
  %16 = add nuw nsw i64 %indvars.iv.i, 2
  %17 = getelementptr inbounds nuw i8, ptr %.03945.i, i64 %16
  %18 = load i8, ptr %17, align 1, !tbaa !8
  %19 = zext i8 %18 to i64
  %gep.i = getelementptr i8, ptr %invariant.gep.i, i64 %indvars.iv.i
  %20 = load i8, ptr %gep.i, align 1, !tbaa !8
  %21 = zext i8 %20 to i64
  %gep51.i = getelementptr i8, ptr %invariant.gep.i, i64 %indvars.iv.next.i
  %22 = load i8, ptr %gep51.i, align 1, !tbaa !8
  %23 = zext i8 %22 to i64
  %24 = mul nuw nsw i64 %23, 81
  %gep53.i = getelementptr i8, ptr %invariant.gep.i, i64 %16
  %25 = load i8, ptr %gep53.i, align 1, !tbaa !8
  %26 = zext i8 %25 to i64
  %gep55.i = getelementptr i8, ptr %invariant.gep54.i, i64 %indvars.iv.i
  %27 = load i8, ptr %gep55.i, align 1, !tbaa !8
  %28 = zext i8 %27 to i64
  %gep57.i = getelementptr i8, ptr %invariant.gep54.i, i64 %indvars.iv.next.i
  %29 = load i8, ptr %gep57.i, align 1, !tbaa !8
  %30 = zext i8 %29 to i64
  %gep59.i = getelementptr i8, ptr %invariant.gep54.i, i64 %16
  %31 = load i8, ptr %gep59.i, align 1, !tbaa !8
  %32 = zext i8 %31 to i64
  %reass.add.i = add nuw nsw i64 %30, %26
  %reass.mul.i = mul nuw nsw i64 %reass.add.i, 9
  %reass.add40.i = add nuw nsw i64 %28, %19
  %reass.mul41.i = mul nuw nsw i64 %reass.add40.i, 6
  %reass.add42.i = add nuw nsw i64 %21, %15
  %reass.mul43.i = mul nuw nsw i64 %reass.add42.i, 54
  %33 = add nuw nsw i64 %12, 128
  %34 = add nuw nsw i64 %33, %24
  %35 = add nuw nsw i64 %34, %reass.mul43.i
  %36 = add nuw nsw i64 %35, %32
  %37 = add nuw nsw i64 %36, %reass.mul41.i
  %38 = add nuw nsw i64 %37, %reass.mul.i
  %39 = lshr i64 %38, 8
  %40 = getelementptr inbounds nuw i8, ptr getelementptr inbounds nuw (i8, ptr @ff_crop_tab, i64 1024), i64 %39
  %41 = load i8, ptr %40, align 1, !tbaa !8
  %42 = getelementptr inbounds nuw i8, ptr %.03846.i, i64 %indvars.iv.i
  store i8 %41, ptr %42, align 1, !tbaa !8
  %exitcond.not.i = icmp eq i64 %indvars.iv.next.i, 8
  br i1 %exitcond.not.i, label %43, label %8, !llvm.loop !16

43:                                               ; preds = %8
  %44 = getelementptr inbounds i8, ptr %.03846.i, i64 %6
  %45 = add nuw nsw i32 %.047.i, 1
  %exitcond49.not.i = icmp eq i32 %45, 8
  br i1 %exitcond49.not.i, label %put_rv30_tpel8_hhvv_lowpass.exit, label %.preheader.i, !llvm.loop !17

put_rv30_tpel8_hhvv_lowpass.exit:                 ; preds = %43
  ret void
}